target datalayout = "e-m:e-p270:32:32-p271:32:32-p272:64:64-i64:64-i128:128-f80:128-n8:16:32:64-S128"
target triple = "x86_64-pc-linux-gnu"

@_ZN9Arguments18_system_propertiesE = external global ptr, align 8

; Function Attrs: mustprogress nounwind uwtable
define linkonce_odr hidden noundef i32 @_ZN12JvmtiEnvBase8allocateElPPh(ptr noundef nonnull align 8 dereferenceable(460) %0, i64 noundef %1, ptr noundef %2) #1 comdat align 2 {
  %4 = alloca i32, align 4
  %5 = alloca ptr, align 8
  %6 = alloca i64, align 8
  %7 = alloca ptr, align 8
  store ptr %0, ptr %5, align 8
  store i64 %1, ptr %6, align 8
  store ptr %2, ptr %7, align 8
  %8 = load i64, ptr %6, align 8
  %9 = icmp slt i64 %8, 0
  br i1 %9, label %10, label %11

10:                                               ; preds = %3
  store i32 103, ptr %4, align 4
  br label %26

11:                                               ; preds = %3
  %12 = load i64, ptr %6, align 8
  %13 = icmp eq i64 %12, 0
  br i1 %13, label %14, label %16

14:                                               ; preds = %11
  %15 = load ptr, ptr %7, align 8
  store ptr null, ptr %15, align 8
  br label %25

16:                                               ; preds = %11
  %17 = load i64, ptr %6, align 8
  %18 = call noundef ptr @_ZN2os6mallocEm8MEMFLAGS(i64 noundef %17, i8 noundef zeroext 9)
  %19 = load ptr, ptr %7, align 8
  store ptr %18, ptr %19, align 8
  %20 = load ptr, ptr %7, align 8
  %21 = load ptr, ptr %20, align 8
  %22 = icmp eq ptr %21, null
  br i1 %22, label %23, label %24

23:                                               ; preds = %16
  store i32 110, ptr %4, align 4
  br label %26

24:                                               ; preds = %16
  br label %25

25:                                               ; preds = %24, %14
  store i32 0, ptr %4, align 4
  br label %26

26:                                               ; preds = %25, %23, %10
  %27 = load i32, ptr %4, align 4
  ret i32 %27
}

; Function Attrs: mustprogress nounwind uwtable
define linkonce_odr hidden noundef ptr @_ZN9Arguments17system_propertiesEv() #1 comdat align 2 {
  %1 = load ptr, ptr @_ZN9Arguments18_system_propertiesE, align 8
  ret ptr %1
}

; Function Attrs: mustprogress nounwind uwtable
define hidden noundef i32 @_ZN8JvmtiEnv17GetSystemPropertyEPKcPPc(ptr noundef nonnull align 8 dereferenceable(460) %0, ptr noundef %1, ptr noundef %2) #1 align 2 {
  %4 = alloca ptr, align 8
  %5 = alloca ptr, align 8
  %6 = alloca ptr, align 8
  %7 = alloca i32, align 4
  %8 = alloca ptr, align 8
  store ptr %0, ptr %4, align 8
  store ptr %1, ptr %5, align 8
  store ptr %2, ptr %6, align 8
  %9 = load ptr, ptr %4, align 8
  store i32 0, ptr %7, align 4
  %10 = call noundef ptr @_ZN9Arguments17system_propertiesEv()
  %11 = load ptr, ptr %5, align 8
  %12 = call noundef ptr @_ZN9Arguments31PropertyList_get_readable_valueEP14SystemPropertyPKc(ptr noundef %10, ptr noundef %11)
  store ptr %12, ptr %8, align 8
  %13 = load ptr, ptr %8, align 8
  %14 = icmp eq ptr %13, null
  br i1 %14, label %15, label %16

15:                                               ; preds = %3
  store i32 98, ptr %7, align 4
  br label %31

16:                                               ; preds = %3
  %17 = load ptr, ptr %8, align 8
  %18 = call i64 @strlen(ptr noundef %17) #11
  %19 = add i64 %18, 1
  %20 = mul i64 %19, 1
  %21 = load ptr, ptr %6, align 8
  %22 = call noundef i32 @_ZN12JvmtiEnvBase8allocateElPPh(ptr noundef nonnull align 8 dereferenceable(460) %9, i64 noundef %20, ptr noundef %21)
  store i32 %22, ptr %7, align 4
  %23 = load i32, ptr %7, align 4
  %24 = icmp eq i32 %23, 0
  br i1 %24, label %25, label %30

25:                                               ; preds = %16
  %26 = load ptr, ptr %6, align 8
  %27 = load ptr, ptr %26, align 8
  %28 = load ptr, ptr %8, align 8
  %29 = call ptr @strcpy(ptr noundef %27, ptr noundef %28) #9
  br label %30

30:                                               ; preds = %25, %16
  br label %31

31:                                               ; preds = %30, %15
  %32 = load i32, ptr %7, align 4
  ret i32 %32
}