; Function Attrs: mustprogress nounwind uwtable
define hidden noundef i32 @_ZN8JvmtiEnv17GetSystemPropertyEPKcPPc(ptr nocapture noundef nonnull readnone align 8 dereferenceable(460) %0, ptr noundef %1, ptr nocapture noundef writeonly %2) local_unnamed_addr #0 align 2 {
  %4 = load ptr, ptr @_ZN9Arguments18_system_propertiesE, align 8
  %5 = tail call noundef ptr @_ZN9Arguments31PropertyList_get_readable_valueEP14SystemPropertyPKc(ptr noundef %4, ptr noundef %1) #17
  %6 = icmp eq ptr %5, null
  br i1 %6, label %_ZN12JvmtiEnvBase8allocateElPPh.exit.thread, label %7

7:                                                ; preds = %3
  %8 = tail call i64 @strlen(ptr noundef nonnull dereferenceable(1) %5) #18
  %9 = add i64 %8, 1
  %10 = icmp slt i64 %9, 0
  br i1 %10, label %_ZN12JvmtiEnvBase8allocateElPPh.exit.thread, label %11

11:                                               ; preds = %7
  %12 = icmp ne i64 %9, 0
  tail call void @llvm.assume(i1 %12)
  %13 = tail call noundef ptr @_ZN2os6mallocEm8MEMFLAGS(i64 noundef %9, i8 noundef zeroext 9) #17
  store ptr %13, ptr %2, align 8
  %14 = icmp eq ptr %13, null
  br i1 %14, label %_ZN12JvmtiEnvBase8allocateElPPh.exit.thread, label %_ZN12JvmtiEnvBase8allocateElPPh.exit

_ZN12JvmtiEnvBase8allocateElPPh.exit:             ; preds = %11
  %15 = tail call ptr @strcpy(ptr noundef nonnull dereferenceable(1) %13, ptr noundef nonnull dereferenceable(1) %5) #17
  br label %_ZN12JvmtiEnvBase8allocateElPPh.exit.thread

_ZN12JvmtiEnvBase8allocateElPPh.exit.thread:      ; preds = %11, %7, %3, %_ZN12JvmtiEnvBase8allocateElPPh.exit
  %.0 = phi i32 [ 0, %_ZN12JvmtiEnvBase8allocateElPPh.exit ], [ 98, %3 ], [ 110, %11 ], [ 103, %7 ]
  ret i32 %.0
}